target datalayout = "e-m:e-p270:32:32-p271:32:32-p272:64:64-i64:64-i128:128-f80:128-n8:16:32:64-S128"
target triple = "x86_64-pc-linux-gnu"

%struct.Gia_Man_t_ = type { ptr, ptr, i32, i32, i32, i32, ptr, ptr, i32, i32, i32, ptr, ptr, %struct.Vec_Int_t_, %struct.Vec_Int_t_, i32, i32, i32, %struct.Vec_Int_t_, ptr, ptr, ptr, i32, i32, i32, i32, ptr, ptr, ptr, ptr, ptr, i32, i32, ptr, i32, ptr, ptr, ptr, ptr, ptr, ptr, ptr, ptr, ptr, ptr, ptr, ptr, ptr, ptr, ptr, ptr, ptr, ptr, %struct.Vec_Int_t_, %struct.Vec_Int_t_, ptr, ptr, ptr, ptr, ptr, ptr, ptr, ptr, ptr, ptr, ptr, ptr, ptr, ptr, ptr, ptr, ptr, ptr, ptr, ptr, ptr, i32, float, float, ptr, ptr, i32, ptr, ptr, ptr, ptr, ptr, ptr, ptr, ptr, ptr, ptr, ptr, ptr, ptr, ptr, ptr, i64, i64, ptr, ptr, i32, i32, i32, i32, i32, i32, i32, i32, i32, i32, i32, i32, ptr, ptr, ptr, ptr, ptr, ptr, ptr, ptr, i32, i32, i32, ptr, i32, i32, ptr, ptr, ptr, ptr, ptr, ptr, i32, i32, ptr, %struct.Vec_Int_t_, %struct.Vec_Int_t_, %struct.Vec_Int_t_, ptr, ptr, ptr, i32, i32, i32, i32, ptr, ptr, ptr, ptr, ptr }
%struct.Vec_Int_t_ = type { i32, i32, ptr }

@.str.6 = private unnamed_addr constant [3 x i8] c"wb\00", align 1
@.str.23 = private unnamed_addr constant [3 x i8] c"{\0A\00", align 1
@.str.24 = private unnamed_addr constant [20 x i8] c"    \22name\22 : \22%s\22,\0A\00", align 1
@.str.25 = private unnamed_addr constant [19 x i8] c"    \22input\22 : %d,\0A\00", align 1
@.str.26 = private unnamed_addr constant [20 x i8] c"    \22output\22 : %d,\0A\00", align 1
@.str.27 = private unnamed_addr constant [17 x i8] c"    \22and\22 : %d,\0A\00", align 1
@.str.28 = private unnamed_addr constant [19 x i8] c"    \22level\22 : %d,\0A\00", align 1
@.str.29 = private unnamed_addr constant [19 x i8] c"    \22total\22 : %d,\0A\00", align 1
@.str.32 = private unnamed_addr constant [3 x i8] c"}\0A\00", align 1
@.str.43 = private unnamed_addr constant [22 x i8] c"    \22positive\22 : %d,\0A\00", align 1
@.str.44 = private unnamed_addr constant [19 x i8] c"    \22error\22 : %e,\0A\00", align 1
@.str.45 = private unnamed_addr constant [18 x i8] c"    \22guess\22 : %e\0A\00", align 1

; Function Attrs: inlinehint nounwind uwtable
define internal i32 @Vec_IntSize(ptr noundef %0) #4 {
  %2 = alloca ptr, align 8
  store ptr %0, ptr %2, align 8, !tbaa !73
  %3 = load ptr, ptr %2, align 8, !tbaa !73
  %4 = getelementptr inbounds nuw %struct.Vec_Int_t_, ptr %3, i32 0, i32 1
  %5 = load i32, ptr %4, align 4, !tbaa !74
  ret i32 %5
}

; Function Attrs: inlinehint nounwind uwtable
define internal i32 @Gia_ManAndNum(ptr noundef %0) #4 {
  %2 = alloca ptr, align 8
  store ptr %0, ptr %2, align 8, !tbaa !12
  %3 = load ptr, ptr %2, align 8, !tbaa !12
  %4 = getelementptr inbounds nuw %struct.Gia_Man_t_, ptr %3, i32 0, i32 4
  %5 = load i32, ptr %4, align 8, !tbaa !60
  %6 = load ptr, ptr %2, align 8, !tbaa !12
  %7 = getelementptr inbounds nuw %struct.Gia_Man_t_, ptr %6, i32 0, i32 11
  %8 = load ptr, ptr %7, align 8, !tbaa !23
  %9 = call i32 @Vec_IntSize(ptr noundef %8)
  %10 = sub nsw i32 %5, %9
  %11 = load ptr, ptr %2, align 8, !tbaa !12
  %12 = getelementptr inbounds nuw %struct.Gia_Man_t_, ptr %11, i32 0, i32 12
  %13 = load ptr, ptr %12, align 8, !tbaa !46
  %14 = call i32 @Vec_IntSize(ptr noundef %13)
  %15 = sub nsw i32 %10, %14
  %16 = sub nsw i32 %15, 1
  ret i32 %16
}

; Function Attrs: inlinehint nounwind uwtable
define internal i32 @Gia_ManCoNum(ptr noundef %0) #4 {
  %2 = alloca ptr, align 8
  store ptr %0, ptr %2, align 8, !tbaa !12
  %3 = load ptr, ptr %2, align 8, !tbaa !12
  %4 = getelementptr inbounds nuw %struct.Gia_Man_t_, ptr %3, i32 0, i32 12
  %5 = load ptr, ptr %4, align 8, !tbaa !46
  %6 = call i32 @Vec_IntSize(ptr noundef %5)
  ret i32 %6
}

; Function Attrs: inlinehint nounwind uwtable
define internal i32 @Gia_ManCiNum(ptr noundef %0) #4 {
  %2 = alloca ptr, align 8
  store ptr %0, ptr %2, align 8, !tbaa !12
  %3 = load ptr, ptr %2, align 8, !tbaa !12
  %4 = getelementptr inbounds nuw %struct.Gia_Man_t_, ptr %3, i32 0, i32 11
  %5 = load ptr, ptr %4, align 8, !tbaa !23
  %6 = call i32 @Vec_IntSize(ptr noundef %5)
  ret i32 %6
}

; Function Attrs: nounwind uwtable
define void @Gia_ManSimLogStats2(ptr noundef %0, ptr noundef %1, i32 noundef %2, i32 noundef %3, float noundef %4, float noundef %5) #0 {
  %7 = alloca ptr, align 8
  %8 = alloca ptr, align 8
  %9 = alloca i32, align 4
  %10 = alloca i32, align 4
  %11 = alloca float, align 4
  %12 = alloca float, align 4
  %13 = alloca ptr, align 8
  store ptr %0, ptr %7, align 8, !tbaa !12
  store ptr %1, ptr %8, align 8, !tbaa !48
  store i32 %2, ptr %9, align 4, !tbaa !10
  store i32 %3, ptr %10, align 4, !tbaa !10
  store float %4, ptr %11, align 4, !tbaa !106
  store float %5, ptr %12, align 4, !tbaa !106
  call void @llvm.lifetime.start.p0(i64 8, ptr %13) #15
  %14 = load ptr, ptr %8, align 8, !tbaa !48
  %15 = call noalias ptr @fopen(ptr noundef %14, ptr noundef @.str.6)
  store ptr %15, ptr %13, align 8, !tbaa !54
  %16 = load ptr, ptr %13, align 8, !tbaa !54
  %17 = call i32 (ptr, ptr, ...) @fprintf(ptr noundef %16, ptr noundef @.str.23) #15
  %18 = load ptr, ptr %13, align 8, !tbaa !54
  %19 = load ptr, ptr %7, align 8, !tbaa !12
  %20 = getelementptr inbounds nuw %struct.Gia_Man_t_, ptr %19, i32 0, i32 0
  %21 = load ptr, ptr %20, align 8, !tbaa !84
  %22 = call i32 (ptr, ptr, ...) @fprintf(ptr noundef %18, ptr noundef @.str.24, ptr noundef %21) #15
  %23 = load ptr, ptr %13, align 8, !tbaa !54
  %24 = load ptr, ptr %7, align 8, !tbaa !12
  %25 = call i32 @Gia_ManCiNum(ptr noundef %24)
  %26 = call i32 (ptr, ptr, ...) @fprintf(ptr noundef %23, ptr noundef @.str.25, i32 noundef %25) #15
  %27 = load ptr, ptr %13, align 8, !tbaa !54
  %28 = load ptr, ptr %7, align 8, !tbaa !12
  %29 = call i32 @Gia_ManCoNum(ptr noundef %28)
  %30 = call i32 (ptr, ptr, ...) @fprintf(ptr noundef %27, ptr noundef @.str.26, i32 noundef %29) #15
  %31 = load ptr, ptr %13, align 8, !tbaa !54
  %32 = load ptr, ptr %7, align 8, !tbaa !12
  %33 = call i32 @Gia_ManAndNum(ptr noundef %32)
  %34 = call i32 (ptr, ptr, ...) @fprintf(ptr noundef %31, ptr noundef @.str.27, i32 noundef %33) #15
  %35 = load ptr, ptr %13, align 8, !tbaa !54
  %36 = load ptr, ptr %7, align 8, !tbaa !12
  %37 = call i32 @Gia_ManLevelNum(ptr noundef %36)
  %38 = call i32 (ptr, ptr, ...) @fprintf(ptr noundef %35, ptr noundef @.str.28, i32 noundef %37) #15
  %39 = load ptr, ptr %13, align 8, !tbaa !54
  %40 = load i32, ptr %9, align 4, !tbaa !10
  %41 = call i32 (ptr, ptr, ...) @fprintf(ptr noundef %39, ptr noundef @.str.29, i32 noundef %40) #15
  %42 = load ptr, ptr %13, align 8, !tbaa !54
  %43 = load i32, ptr %10, align 4, !tbaa !10
  %44 = call i32 (ptr, ptr, ...) @fprintf(ptr noundef %42, ptr noundef @.str.43, i32 noundef %43) #15
  %45 = load ptr, ptr %13, align 8, !tbaa !54
  %46 = load float, ptr %11, align 4, !tbaa !106
  %47 = fpext float %46 to double
  %48 = call i32 (ptr, ptr, ...) @fprintf(ptr noundef %45, ptr noundef @.str.44, double noundef %47) #15
  %49 = load ptr, ptr %13, align 8, !tbaa !54
  %50 = load float, ptr %12, align 4, !tbaa !106
  %51 = fpext float %50 to double
  %52 = call i32 (ptr, ptr, ...) @fprintf(ptr noundef %49, ptr noundef @.str.45, double noundef %51) #15
  %53 = load ptr, ptr %13, align 8, !tbaa !54
  %54 = call i32 (ptr, ptr, ...) @fprintf(ptr noundef %53, ptr noundef @.str.32) #15
  %55 = load ptr, ptr %13, align 8, !tbaa !54
  %56 = call i32 @fclose(ptr noundef %55)
  call void @llvm.lifetime.end.p0(i64 8, ptr %13) #15
  ret void
}