; Function Attrs: nounwind uwtable
define void @Gia_ManSimLogStats2(ptr noundef %0, ptr noundef readonly captures(none) %1, i32 noundef %2, i32 noundef %3, float noundef %4, float noundef %5) local_unnamed_addr #0 {
  %7 = tail call noalias ptr @fopen(ptr noundef %1, ptr noundef nonnull @.str.6)
  %8 = tail call i64 @fwrite(ptr nonnull @.str.23, i64 2, i64 1, ptr %7)
  %9 = load ptr, ptr %0, align 8, !tbaa !71
  %10 = tail call i32 (ptr, ptr, ...) @fprintf(ptr noundef %7, ptr noundef nonnull @.str.24, ptr noundef %9) #21
  %11 = getelementptr i8, ptr %0, i64 64
  %.val = load ptr, ptr %11, align 8, !tbaa !22
  %12 = getelementptr i8, ptr %.val, i64 4
  %.val.val = load i32, ptr %12, align 4, !tbaa !41
  %13 = tail call i32 (ptr, ptr, ...) @fprintf(ptr noundef %7, ptr noundef nonnull @.str.25, i32 noundef %.val.val) #21
  %14 = getelementptr i8, ptr %0, i64 72
  %.val21 = load ptr, ptr %14, align 8, !tbaa !45
  %15 = getelementptr i8, ptr %.val21, i64 4
  %.val21.val = load i32, ptr %15, align 4, !tbaa !41
  %16 = tail call i32 (ptr, ptr, ...) @fprintf(ptr noundef %7, ptr noundef nonnull @.str.26, i32 noundef %.val21.val) #21
  %17 = getelementptr inbounds nuw i8, ptr %0, i64 24
  %18 = load i32, ptr %17, align 8, !tbaa !55
  %19 = load ptr, ptr %11, align 8, !tbaa !22
  %20 = getelementptr i8, ptr %19, i64 4
  %.val3.i = load i32, ptr %20, align 4, !tbaa !41
  %21 = load ptr, ptr %14, align 8, !tbaa !45
  %22 = getelementptr i8, ptr %21, i64 4
  %.val.i = load i32, ptr %22, align 4, !tbaa !41
  %23 = add i32 %.val.i, %.val3.i
  %24 = xor i32 %23, -1
  %25 = add i32 %18, %24
  %26 = tail call i32 (ptr, ptr, ...) @fprintf(ptr noundef %7, ptr noundef nonnull @.str.27, i32 noundef %25) #21
  %27 = tail call i32 @Gia_ManLevelNum(ptr noundef nonnull %0) #21
  %28 = tail call i32 (ptr, ptr, ...) @fprintf(ptr noundef %7, ptr noundef nonnull @.str.28, i32 noundef %27) #21
  %29 = tail call i32 (ptr, ptr, ...) @fprintf(ptr noundef %7, ptr noundef nonnull @.str.29, i32 noundef %2) #21
  %30 = tail call i32 (ptr, ptr, ...) @fprintf(ptr noundef %7, ptr noundef nonnull @.str.43, i32 noundef %3) #21
  %31 = fpext float %4 to double
  %32 = tail call i32 (ptr, ptr, ...) @fprintf(ptr noundef %7, ptr noundef nonnull @.str.44, double noundef %31) #21
  %33 = fpext float %5 to double
  %34 = tail call i32 (ptr, ptr, ...) @fprintf(ptr noundef %7, ptr noundef nonnull @.str.45, double noundef %33) #21
  %35 = tail call i64 @fwrite(ptr nonnull @.str.32, i64 2, i64 1, ptr %7)
  %36 = tail call i32 @fclose(ptr noundef %7)
  ret void
}